target datalayout = "e-m:e-p270:32:32-p271:32:32-p272:64:64-i64:64-i128:128-f80:128-n8:16:32:64-S128"
target triple = "x86_64-pc-linux-gnu"

; Function Attrs: nounwind uwtable
define internal i32 @lj_cf_error(ptr noundef %0) #3 {
  %2 = alloca ptr, align 8
  %3 = alloca i32, align 4
  store ptr %0, ptr %2, align 8, !tbaa !4
  call void @llvm.lifetime.start.p0(i64 4, ptr %3) #11
  %4 = load ptr, ptr %2, align 8, !tbaa !4
  %5 = call i32 @lj_lib_optint(ptr noundef %4, i32 noundef 2, i32 noundef 1)
  store i32 %5, ptr %3, align 4, !tbaa !29
  %6 = load ptr, ptr %2, align 8, !tbaa !4
  call void @lua_settop(ptr noundef %6, i32 noundef 1)
  %7 = load ptr, ptr %2, align 8, !tbaa !4
  %8 = call i32 @lua_isstring(ptr noundef %7, i32 noundef 1)
  %9 = icmp ne i32 %8, 0
  br i1 %9, label %10, label %18

10:                                               ; preds = %1
  %11 = load i32, ptr %3, align 4, !tbaa !29
  %12 = icmp sgt i32 %11, 0
  br i1 %12, label %13, label %18

13:                                               ; preds = %10
  %14 = load ptr, ptr %2, align 8, !tbaa !4
  %15 = load i32, ptr %3, align 4, !tbaa !29
  call void @luaL_where(ptr noundef %14, i32 noundef %15)
  %16 = load ptr, ptr %2, align 8, !tbaa !4
  call void @lua_pushvalue(ptr noundef %16, i32 noundef 1)
  %17 = load ptr, ptr %2, align 8, !tbaa !4
  call void @lua_concat(ptr noundef %17, i32 noundef 2)
  br label %18

18:                                               ; preds = %13, %10, %1
  %19 = load ptr, ptr %2, align 8, !tbaa !4
  %20 = call i32 @lua_error(ptr noundef %19)
  call void @llvm.lifetime.end.p0(i64 4, ptr %3) #11
  ret i32 %20
}