; Function Attrs: nounwind uwtable
define internal i32 @lj_cf_error(ptr noundef %0) #2 {
  %2 = tail call i32 @lj_lib_optint(ptr noundef %0, i32 noundef 2, i32 noundef 1) #11
  tail call void @lua_settop(ptr noundef %0, i32 noundef 1) #11
  %3 = tail call i32 @lua_isstring(ptr noundef %0, i32 noundef 1) #11
  %4 = icmp ne i32 %3, 0
  %5 = icmp sgt i32 %2, 0
  %or.cond = select i1 %4, i1 %5, i1 false
  br i1 %or.cond, label %6, label %7

6:                                                ; preds = %1
  tail call void @luaL_where(ptr noundef %0, i32 noundef %2) #11
  tail call void @lua_pushvalue(ptr noundef %0, i32 noundef 1) #11
  tail call void @lua_concat(ptr noundef %0, i32 noundef 2) #11
  br label %7

7:                                                ; preds = %6, %1
  %8 = tail call i32 @lua_error(ptr noundef %0) #11
  ret i32 %8
}